; Function Attrs: mustprogress uwtable
define dso_local noundef zeroext i1 @_ZNK12CVQualifiers12sanity_checkEPK4Type(ptr nocapture noundef nonnull readonly align 8 dereferenceable(96) %0, ptr noundef nonnull %1) local_unnamed_addr #4 align 2 personality ptr @__gxx_personality_v0 {
  %3 = tail call noundef i32 @_ZNK4Type18get_indirect_levelEv(ptr noundef nonnull align 8 dereferenceable(136) %1)
  %4 = getelementptr inbounds i8, ptr %0, i64 8
  %5 = load i8, ptr %4, align 8
  %6 = and i8 %5, 1
  %.not = icmp eq i8 %6, 0
  br i1 %.not, label %7, label %37

7:                                                ; preds = %2
  %8 = getelementptr inbounds i8, ptr %0, i64 16
  %9 = getelementptr inbounds i8, ptr %0, i64 32
  %10 = load ptr, ptr %9, align 8
  %11 = getelementptr inbounds i8, ptr %0, i64 40
  %12 = load i32, ptr %11, align 8
  %13 = load ptr, ptr %8, align 8
  %14 = ptrtoint ptr %10 to i64
  %15 = ptrtoint ptr %13 to i64
  %16 = sub i64 %14, %15
  %17 = shl nsw i64 %16, 3
  %18 = zext i32 %12 to i64
  %19 = add nsw i64 %17, %18
  %20 = getelementptr inbounds i8, ptr %0, i64 56
  %21 = getelementptr inbounds i8, ptr %0, i64 72
  %22 = load ptr, ptr %21, align 8
  %23 = getelementptr inbounds i8, ptr %0, i64 80
  %24 = load i32, ptr %23, align 8
  %25 = load ptr, ptr %20, align 8
  %26 = ptrtoint ptr %22 to i64
  %27 = ptrtoint ptr %25 to i64
  %28 = sub i64 %26, %27
  %29 = shl nsw i64 %28, 3
  %30 = zext i32 %24 to i64
  %31 = add nsw i64 %29, %30
  %32 = icmp eq i64 %19, %31
  br i1 %32, label %33, label %37

33:                                               ; preds = %7
  %34 = sext i32 %3 to i64
  %35 = add nsw i64 %34, 1
  %36 = icmp eq i64 %35, %19
  br label %37

37:                                               ; preds = %7, %33, %2
  %38 = phi i1 [ true, %2 ], [ false, %7 ], [ %36, %33 ]
  ret i1 %38
}